target datalayout = "e-m:e-p270:32:32-p271:32:32-p272:64:64-i64:64-i128:128-f80:128-n8:16:32:64-S128"
target triple = "x86_64-pc-linux-gnu"

%class.LIR_Opr = type { i64 }
%class.Register = type { i32 }
%"class.Register::RegisterImpl" = type { i8 }

@_ZN8FrameMap12receiver_oprE = external global %class.LIR_Opr, align 8
@_ZN8FrameMap12_cpu_reg2rnrE = external global [16 x i32], align 16
@all_RegisterImpls = external hidden global [33 x %"class.Register::RegisterImpl"], align 16

; Function Attrs: mustprogress nounwind uwtable
define linkonce_odr hidden noundef i32 @_Z12checked_castIilET_T0_(i64 noundef %0) #1 comdat {
  %2 = alloca i64, align 8
  %3 = alloca i32, align 4
  store i64 %0, ptr %2, align 8
  %4 = load i64, ptr %2, align 8
  %5 = trunc i64 %4 to i32
  store i32 %5, ptr %3, align 4
  %6 = load i32, ptr %3, align 4
  ret i32 %6
}

; Function Attrs: mustprogress nounwind uwtable
define linkonce_odr hidden noundef i32 @_ZNK8Register12RegisterImpl12raw_encodingEv(ptr noundef nonnull align 1 dereferenceable(1) %0) #1 comdat align 2 {
  %2 = alloca ptr, align 8
  store ptr %0, ptr %2, align 8
  %3 = load ptr, ptr %2, align 8
  %4 = call noundef ptr @_ZN8Register12RegisterImpl5firstEv()
  %5 = ptrtoint ptr %3 to i64
  %6 = ptrtoint ptr %4 to i64
  %7 = sub i64 %5, %6
  %8 = call noundef i32 @_Z12checked_castIilET_T0_(i64 noundef %7)
  ret i32 %8
}

; Function Attrs: mustprogress nounwind uwtable
define linkonce_odr hidden noundef ptr @_ZN8Register12RegisterImpl5firstEv() #1 comdat align 2 {
  ret ptr getelementptr inbounds (%"class.Register::RegisterImpl", ptr @all_RegisterImpls, i64 1)
}

; Function Attrs: mustprogress nounwind uwtable
define linkonce_odr hidden void @_ZN7LIR_OprC2El(ptr noundef nonnull align 8 dereferenceable(8) %0, i64 noundef %1) unnamed_addr #1 comdat align 2 {
  %3 = alloca ptr, align 8
  %4 = alloca i64, align 8
  store ptr %0, ptr %3, align 8
  store i64 %1, ptr %4, align 8
  %5 = load ptr, ptr %3, align 8
  %6 = getelementptr inbounds %class.LIR_Opr, ptr %5, i32 0, i32 0
  %7 = load i64, ptr %4, align 8
  store i64 %7, ptr %6, align 8
  ret void
}

; Function Attrs: mustprogress nounwind uwtable
define linkonce_odr hidden noundef i32 @_ZNK8Register12RegisterImpl8encodingEv(ptr noundef nonnull align 1 dereferenceable(1) %0) #1 comdat align 2 {
  %2 = alloca ptr, align 8
  store ptr %0, ptr %2, align 8
  %3 = load ptr, ptr %2, align 8
  %4 = call noundef i32 @_ZNK8Register12RegisterImpl12raw_encodingEv(ptr noundef nonnull align 1 dereferenceable(1) %3)
  ret i32 %4
}

; Function Attrs: mustprogress nounwind uwtable
define linkonce_odr hidden noundef ptr @_ZNK8RegisterptEv(ptr noundef nonnull align 4 dereferenceable(4) %0) #1 comdat align 2 {
  %2 = alloca ptr, align 8
  store ptr %0, ptr %2, align 8
  %3 = load ptr, ptr %2, align 8
  %4 = call noundef ptr @_ZN8Register12RegisterImpl5firstEv()
  %5 = getelementptr inbounds %class.Register, ptr %3, i32 0, i32 0
  %6 = load i32, ptr %5, align 4
  %7 = sext i32 %6 to i64
  %8 = getelementptr inbounds %"class.Register::RegisterImpl", ptr %4, i64 %7
  ret ptr %8
}

; Function Attrs: mustprogress nounwind uwtable
define linkonce_odr hidden i64 @_ZN11LIR_OprFact10double_cpuEii(i32 noundef %0, i32 noundef %1) #1 comdat align 2 {
  %3 = alloca %class.LIR_Opr, align 8
  %4 = alloca i32, align 4
  %5 = alloca i32, align 4
  store i32 %0, ptr %4, align 4
  store i32 %1, ptr %5, align 4
  %6 = load i32, ptr %4, align 4
  %7 = shl i32 %6, 14
  %8 = load i32, ptr %5, align 4
  %9 = shl i32 %8, 23
  %10 = or i32 %7, %9
  %11 = or i32 %10, 16
  %12 = or i32 %11, 3
  %13 = or i32 %12, 128
  %14 = sext i32 %13 to i64
  call void @_ZN7LIR_OprC2El(ptr noundef nonnull align 8 dereferenceable(8) %3, i64 noundef %14)
  %15 = getelementptr inbounds %class.LIR_Opr, ptr %3, i32 0, i32 0
  %16 = load i64, ptr %15, align 8
  ret i64 %16
}

; Function Attrs: mustprogress nounwind uwtable
define linkonce_odr hidden noundef i32 @_ZN8FrameMap11cpu_reg2rnrE8Register(i32 %0) #1 comdat align 2 {
  %2 = alloca %class.Register, align 4
  %3 = getelementptr inbounds %class.Register, ptr %2, i32 0, i32 0
  store i32 %0, ptr %3, align 4
  %4 = call noundef ptr @_ZNK8RegisterptEv(ptr noundef nonnull align 4 dereferenceable(4) %2)
  %5 = call noundef i32 @_ZNK8Register12RegisterImpl8encodingEv(ptr noundef nonnull align 1 dereferenceable(1) %4)
  %6 = sext i32 %5 to i64
  %7 = getelementptr inbounds [16 x i32], ptr @_ZN8FrameMap12_cpu_reg2rnrE, i64 0, i64 %6
  %8 = load i32, ptr %7, align 4
  ret i32 %8
}

; Function Attrs: mustprogress nounwind uwtable
define linkonce_odr hidden i64 @_ZN8FrameMap14as_pointer_oprE8Register(i32 %0) #1 comdat align 2 {
  %2 = alloca %class.LIR_Opr, align 8
  %3 = alloca %class.Register, align 4
  %4 = alloca %class.Register, align 4
  %5 = alloca %class.Register, align 4
  %6 = getelementptr inbounds %class.Register, ptr %3, i32 0, i32 0
  store i32 %0, ptr %6, align 4
  call void @llvm.memcpy.p0.p0.i64(ptr align 4 %4, ptr align 4 %3, i64 4, i1 false)
  %7 = getelementptr inbounds %class.Register, ptr %4, i32 0, i32 0
  %8 = load i32, ptr %7, align 4
  %9 = call noundef i32 @_ZN8FrameMap11cpu_reg2rnrE8Register(i32 %8)
  call void @llvm.memcpy.p0.p0.i64(ptr align 4 %5, ptr align 4 %3, i64 4, i1 false)
  %10 = getelementptr inbounds %class.Register, ptr %5, i32 0, i32 0
  %11 = load i32, ptr %10, align 4
  %12 = call noundef i32 @_ZN8FrameMap11cpu_reg2rnrE8Register(i32 %11)
  %13 = call i64 @_ZN11LIR_OprFact10double_cpuEii(i32 noundef %9, i32 noundef %12)
  %14 = getelementptr inbounds %class.LIR_Opr, ptr %2, i32 0, i32 0
  store i64 %13, ptr %14, align 8
  %15 = getelementptr inbounds %class.LIR_Opr, ptr %2, i32 0, i32 0
  %16 = load i64, ptr %15, align 8
  ret i64 %16
}

; Function Attrs: mustprogress nounwind uwtable
define linkonce_odr hidden noundef ptr @_ZN7LIR_OprptEv(ptr noundef nonnull align 8 dereferenceable(8) %0) #1 comdat align 2 {
  %2 = alloca ptr, align 8
  store ptr %0, ptr %2, align 8
  %3 = load ptr, ptr %2, align 8
  ret ptr %3
}

; Function Attrs: mustprogress nounwind uwtable
define hidden i64 @_ZN13LIR_Assembler11receiverOprEv() #1 align 2 {
  %1 = alloca %class.LIR_Opr, align 8
  call void @llvm.memcpy.p0.p0.i64(ptr align 8 %1, ptr align 8 @_ZN8FrameMap12receiver_oprE, i64 8, i1 false)
  %2 = getelementptr inbounds %class.LIR_Opr, ptr %1, i32 0, i32 0
  %3 = load i64, ptr %2, align 8
  ret i64 %3
}

; Function Attrs: mustprogress nounwind uwtable
define hidden i64 @_ZN13LIR_Assembler16osrBufferPointerEv() #1 align 2 {
  %1 = alloca %class.LIR_Opr, align 8
  %2 = alloca %class.Register, align 4
  %3 = alloca %class.LIR_Opr, align 8
  %4 = call i64 @_ZN13LIR_Assembler11receiverOprEv()
  %5 = getelementptr inbounds %class.LIR_Opr, ptr %3, i32 0, i32 0
  store i64 %4, ptr %5, align 8
  %6 = call noundef ptr @_ZN7LIR_OprptEv(ptr noundef nonnull align 8 dereferenceable(8) %3)
  %7 = call i32 @_ZNK7LIR_Opr11as_registerEv(ptr noundef nonnull align 8 dereferenceable(8) %6)
  %8 = getelementptr inbounds %class.Register, ptr %2, i32 0, i32 0
  store i32 %7, ptr %8, align 4
  %9 = getelementptr inbounds %class.Register, ptr %2, i32 0, i32 0
  %10 = load i32, ptr %9, align 4
  %11 = call i64 @_ZN8FrameMap14as_pointer_oprE8Register(i32 %10)
  %12 = getelementptr inbounds %class.LIR_Opr, ptr %1, i32 0, i32 0
  store i64 %11, ptr %12, align 8
  %13 = getelementptr inbounds %class.LIR_Opr, ptr %1, i32 0, i32 0
  %14 = load i64, ptr %13, align 8
  ret i64 %14
}