; Function Attrs: mustprogress nounwind uwtable
define hidden i64 @_ZN13LIR_Assembler16osrBufferPointerEv() local_unnamed_addr #0 align 2 {
  %1 = alloca %class.LIR_Opr, align 8
  %.sroa.0.0.copyload.i = load i64, ptr @_ZN8FrameMap12receiver_oprE, align 8
  store i64 %.sroa.0.0.copyload.i, ptr %1, align 8
  %2 = call i32 @_ZNK7LIR_Opr11as_registerEv(ptr noundef nonnull align 8 dereferenceable(8) %1) #15
  %3 = sext i32 %2 to i64
  %4 = getelementptr inbounds %"class.Register::RegisterImpl", ptr getelementptr inbounds (i8, ptr @all_RegisterImpls, i64 1), i64 %3
  %5 = ptrtoint ptr %4 to i64
  %6 = trunc i64 %5 to i32
  %7 = sub i32 %6, ptrtoint (ptr getelementptr inbounds (i8, ptr @all_RegisterImpls, i64 1) to i32)
  %8 = sext i32 %7 to i64
  %9 = getelementptr inbounds [16 x i32], ptr @_ZN8FrameMap12_cpu_reg2rnrE, i64 0, i64 %8
  %10 = load i32, ptr %9, align 4
  %11 = shl i32 %10, 14
  %12 = shl i32 %10, 23
  %13 = or i32 %11, %12
  %14 = or disjoint i32 %13, 147
  %15 = sext i32 %14 to i64
  ret i64 %15
}